target datalayout = "e-m:e-p270:32:32-p271:32:32-p272:64:64-i64:64-i128:128-f80:128-n8:16:32:64-S128"
target triple = "x86_64-pc-linux-gnu"

; Function Attrs: alwaysinline nounwind willreturn memory(none) uwtable
define internal zeroext i8 @av_clip_uint8_c(i32 noundef %0) #4 {
  %2 = alloca i8, align 1
  %3 = alloca i32, align 4
  store i32 %0, ptr %3, align 4, !tbaa !13
  %4 = load i32, ptr %3, align 4, !tbaa !13
  %5 = and i32 %4, -256
  %6 = icmp ne i32 %5, 0
  br i1 %6, label %7, label %12

7:                                                ; preds = %1
  %8 = load i32, ptr %3, align 4, !tbaa !13
  %9 = xor i32 %8, -1
  %10 = ashr i32 %9, 31
  %11 = trunc i32 %10 to i8
  store i8 %11, ptr %2, align 1
  br label %15

12:                                               ; preds = %1
  %13 = load i32, ptr %3, align 4, !tbaa !13
  %14 = trunc i32 %13 to i8
  store i8 %14, ptr %2, align 1
  br label %15

15:                                               ; preds = %12, %7
  %16 = load i8, ptr %2, align 1
  ret i8 %16
}

; Function Attrs: nounwind uwtable
define internal void @biweight_dirac_pixels16_c(ptr noundef %0, ptr noundef %1, i32 noundef %2, i32 noundef %3, i32 noundef %4, i32 noundef %5, i32 noundef %6) #1 {
  %8 = alloca ptr, align 8
  %9 = alloca ptr, align 8
  %10 = alloca i32, align 4
  %11 = alloca i32, align 4
  %12 = alloca i32, align 4
  %13 = alloca i32, align 4
  %14 = alloca i32, align 4
  %15 = alloca i32, align 4
  store ptr %0, ptr %8, align 8, !tbaa !11
  store ptr %1, ptr %9, align 8, !tbaa !11
  store i32 %2, ptr %10, align 4, !tbaa !13
  store i32 %3, ptr %11, align 4, !tbaa !13
  store i32 %4, ptr %12, align 4, !tbaa !13
  store i32 %5, ptr %13, align 4, !tbaa !13
  store i32 %6, ptr %14, align 4, !tbaa !13
  call void @llvm.lifetime.start.p0(i64 4, ptr %15) #5
  br label %16

16:                                               ; preds = %87, %7
  %17 = load i32, ptr %14, align 4, !tbaa !13
  %18 = add nsw i32 %17, -1
  store i32 %18, ptr %14, align 4, !tbaa !13
  %19 = icmp ne i32 %17, 0
  br i1 %19, label %20, label %96

20:                                               ; preds = %16
  store i32 0, ptr %15, align 4, !tbaa !13
  br label %21

21:                                               ; preds = %84, %20
  %22 = load i32, ptr %15, align 4, !tbaa !13
  %23 = icmp slt i32 %22, 16
  br i1 %23, label %24, label %87

24:                                               ; preds = %21
  %25 = load ptr, ptr %9, align 8, !tbaa !11
  %26 = load i32, ptr %15, align 4, !tbaa !13
  %27 = sext i32 %26 to i64
  %28 = getelementptr inbounds i8, ptr %25, i64 %27
  %29 = load i8, ptr %28, align 1, !tbaa !15
  %30 = zext i8 %29 to i32
  %31 = load i32, ptr %13, align 4, !tbaa !13
  %32 = mul nsw i32 %30, %31
  %33 = load ptr, ptr %8, align 8, !tbaa !11
  %34 = load i32, ptr %15, align 4, !tbaa !13
  %35 = sext i32 %34 to i64
  %36 = getelementptr inbounds i8, ptr %33, i64 %35
  %37 = load i8, ptr %36, align 1, !tbaa !15
  %38 = zext i8 %37 to i32
  %39 = load i32, ptr %12, align 4, !tbaa !13
  %40 = mul nsw i32 %38, %39
  %41 = add nsw i32 %32, %40
  %42 = load i32, ptr %11, align 4, !tbaa !13
  %43 = sub nsw i32 %42, 1
  %44 = shl i32 1, %43
  %45 = add nsw i32 %41, %44
  %46 = load i32, ptr %11, align 4, !tbaa !13
  %47 = ashr i32 %45, %46
  %48 = call zeroext i8 @av_clip_uint8_c(i32 noundef %47) #6
  %49 = load ptr, ptr %8, align 8, !tbaa !11
  %50 = load i32, ptr %15, align 4, !tbaa !13
  %51 = sext i32 %50 to i64
  %52 = getelementptr inbounds i8, ptr %49, i64 %51
  store i8 %48, ptr %52, align 1, !tbaa !15
  %53 = load ptr, ptr %9, align 8, !tbaa !11
  %54 = load i32, ptr %15, align 4, !tbaa !13
  %55 = add nsw i32 %54, 1
  %56 = sext i32 %55 to i64
  %57 = getelementptr inbounds i8, ptr %53, i64 %56
  %58 = load i8, ptr %57, align 1, !tbaa !15
  %59 = zext i8 %58 to i32
  %60 = load i32, ptr %13, align 4, !tbaa !13
  %61 = mul nsw i32 %59, %60
  %62 = load ptr, ptr %8, align 8, !tbaa !11
  %63 = load i32, ptr %15, align 4, !tbaa !13
  %64 = add nsw i32 %63, 1
  %65 = sext i32 %64 to i64
  %66 = getelementptr inbounds i8, ptr %62, i64 %65
  %67 = load i8, ptr %66, align 1, !tbaa !15
  %68 = zext i8 %67 to i32
  %69 = load i32, ptr %12, align 4, !tbaa !13
  %70 = mul nsw i32 %68, %69
  %71 = add nsw i32 %61, %70
  %72 = load i32, ptr %11, align 4, !tbaa !13
  %73 = sub nsw i32 %72, 1
  %74 = shl i32 1, %73
  %75 = add nsw i32 %71, %74
  %76 = load i32, ptr %11, align 4, !tbaa !13
  %77 = ashr i32 %75, %76
  %78 = call zeroext i8 @av_clip_uint8_c(i32 noundef %77) #6
  %79 = load ptr, ptr %8, align 8, !tbaa !11
  %80 = load i32, ptr %15, align 4, !tbaa !13
  %81 = add nsw i32 %80, 1
  %82 = sext i32 %81 to i64
  %83 = getelementptr inbounds i8, ptr %79, i64 %82
  store i8 %78, ptr %83, align 1, !tbaa !15
  br label %84

84:                                               ; preds = %24
  %85 = load i32, ptr %15, align 4, !tbaa !13
  %86 = add nsw i32 %85, 1
  store i32 %86, ptr %15, align 4, !tbaa !13
  br label %21, !llvm.loop !49

87:                                               ; preds = %21
  %88 = load i32, ptr %10, align 4, !tbaa !13
  %89 = load ptr, ptr %8, align 8, !tbaa !11
  %90 = sext i32 %88 to i64
  %91 = getelementptr inbounds i8, ptr %89, i64 %90
  store ptr %91, ptr %8, align 8, !tbaa !11
  %92 = load i32, ptr %10, align 4, !tbaa !13
  %93 = load ptr, ptr %9, align 8, !tbaa !11
  %94 = sext i32 %92 to i64
  %95 = getelementptr inbounds i8, ptr %93, i64 %94
  store ptr %95, ptr %9, align 8, !tbaa !11
  br label %16, !llvm.loop !50

96:                                               ; preds = %16
  call void @llvm.lifetime.end.p0(i64 4, ptr %15) #5
  ret void
}